target datalayout = "e-m:e-p270:32:32-p271:32:32-p272:64:64-i64:64-i128:128-f80:128-n8:16:32:64-S128"
target triple = "x86_64-pc-linux-gnu"

%struct.SlotsFlush = type { i32, [0 x %struct.SlotRange] }
%struct.SlotRange = type { i16, i16 }

; Function Attrs: nounwind uwtable
define dso_local void @replySlotsFlushAndFree(ptr noundef %0, ptr noundef %1) #0 {
  %3 = alloca ptr, align 8
  %4 = alloca ptr, align 8
  %5 = alloca i32, align 4
  store ptr %0, ptr %3, align 8, !tbaa !53
  store ptr %1, ptr %4, align 8, !tbaa !169
  %6 = load ptr, ptr %3, align 8, !tbaa !53
  %7 = load ptr, ptr %4, align 8, !tbaa !169
  %8 = getelementptr inbounds nuw %struct.SlotsFlush, ptr %7, i32 0, i32 0
  %9 = load i32, ptr %8, align 4, !tbaa !10
  %10 = sext i32 %9 to i64
  call void @addReplyArrayLen(ptr noundef %6, i64 noundef %10)
  call void @llvm.lifetime.start.p0(i64 4, ptr %5) #14
  store i32 0, ptr %5, align 4, !tbaa !10
  br label %11

11:                                               ; preds = %38, %2
  %12 = load i32, ptr %5, align 4, !tbaa !10
  %13 = load ptr, ptr %4, align 8, !tbaa !169
  %14 = getelementptr inbounds nuw %struct.SlotsFlush, ptr %13, i32 0, i32 0
  %15 = load i32, ptr %14, align 4, !tbaa !10
  %16 = icmp slt i32 %12, %15
  br i1 %16, label %18, label %17

17:                                               ; preds = %11
  call void @llvm.lifetime.end.p0(i64 4, ptr %5) #14
  br label %41

18:                                               ; preds = %11
  %19 = load ptr, ptr %3, align 8, !tbaa !53
  call void @addReplyArrayLen(ptr noundef %19, i64 noundef 2)
  %20 = load ptr, ptr %3, align 8, !tbaa !53
  %21 = load ptr, ptr %4, align 8, !tbaa !169
  %22 = getelementptr inbounds nuw %struct.SlotsFlush, ptr %21, i32 0, i32 1
  %23 = load i32, ptr %5, align 4, !tbaa !10
  %24 = sext i32 %23 to i64
  %25 = getelementptr inbounds [0 x %struct.SlotRange], ptr %22, i64 0, i64 %24
  %26 = getelementptr inbounds nuw %struct.SlotRange, ptr %25, i32 0, i32 0
  %27 = load i16, ptr %26, align 4, !tbaa !171
  %28 = zext i16 %27 to i64
  call void @addReplyLongLong(ptr noundef %20, i64 noundef %28)
  %29 = load ptr, ptr %3, align 8, !tbaa !53
  %30 = load ptr, ptr %4, align 8, !tbaa !169
  %31 = getelementptr inbounds nuw %struct.SlotsFlush, ptr %30, i32 0, i32 1
  %32 = load i32, ptr %5, align 4, !tbaa !10
  %33 = sext i32 %32 to i64
  %34 = getelementptr inbounds [0 x %struct.SlotRange], ptr %31, i64 0, i64 %33
  %35 = getelementptr inbounds nuw %struct.SlotRange, ptr %34, i32 0, i32 1
  %36 = load i16, ptr %35, align 2, !tbaa !173
  %37 = zext i16 %36 to i64
  call void @addReplyLongLong(ptr noundef %29, i64 noundef %37)
  br label %38

38:                                               ; preds = %18
  %39 = load i32, ptr %5, align 4, !tbaa !10
  %40 = add nsw i32 %39, 1
  store i32 %40, ptr %5, align 4, !tbaa !10
  br label %11, !llvm.loop !174

41:                                               ; preds = %17
  %42 = load ptr, ptr %4, align 8, !tbaa !169
  call void @zfree(ptr noundef %42)
  ret void
}