; Function Attrs: nounwind uwtable
define dso_local void @replySlotsFlushAndFree(ptr noundef %0, ptr noundef %1) local_unnamed_addr #0 {
  %3 = load i32, ptr %1, align 4, !tbaa !44
  %4 = sext i32 %3 to i64
  tail call void @addReplyArrayLen(ptr noundef %0, i64 noundef %4) #16
  %5 = load i32, ptr %1, align 4, !tbaa !44
  %6 = icmp sgt i32 %5, 0
  br i1 %6, label %.lr.ph, label %._crit_edge

.lr.ph:                                           ; preds = %2
  %7 = getelementptr inbounds nuw i8, ptr %1, i64 4
  br label %8

._crit_edge:                                      ; preds = %8, %2
  tail call void @zfree(ptr noundef nonnull %1) #16
  ret void

8:                                                ; preds = %.lr.ph, %8
  %indvars.iv = phi i64 [ 0, %.lr.ph ], [ %indvars.iv.next, %8 ]
  tail call void @addReplyArrayLen(ptr noundef %0, i64 noundef 2) #16
  %9 = getelementptr inbounds nuw [0 x %struct.SlotRange], ptr %7, i64 0, i64 %indvars.iv
  %10 = load i16, ptr %9, align 4, !tbaa !147
  %11 = zext i16 %10 to i64
  tail call void @addReplyLongLong(ptr noundef %0, i64 noundef %11) #16
  %12 = getelementptr inbounds nuw i8, ptr %9, i64 2
  %13 = load i16, ptr %12, align 2, !tbaa !149
  %14 = zext i16 %13 to i64
  tail call void @addReplyLongLong(ptr noundef %0, i64 noundef %14) #16
  %indvars.iv.next = add nuw nsw i64 %indvars.iv, 1
  %15 = load i32, ptr %1, align 4, !tbaa !44
  %16 = sext i32 %15 to i64
  %17 = icmp slt i64 %indvars.iv.next, %16
  br i1 %17, label %8, label %._crit_edge, !llvm.loop !150
}